target datalayout = "e-m:e-p270:32:32-p271:32:32-p272:64:64-i64:64-i128:128-f80:128-n8:16:32:64-S128"
target triple = "x86_64-pc-linux-gnu"

%struct.SystemThemeData = type { ptr, i32 }
%struct.DBusMessageIter = type { ptr, ptr, i32, i32, i32, i32, i32, i32, i32, i32, i32, i32, ptr, ptr }
%struct.SDL_DBusContext = type { ptr, ptr, ptr, ptr, ptr, ptr, ptr, ptr, ptr, ptr, ptr, ptr, ptr, ptr, ptr, ptr, ptr, ptr, ptr, ptr, ptr, ptr, ptr, ptr, ptr, ptr, ptr, ptr, ptr, ptr, ptr, ptr, ptr, ptr, ptr, ptr, ptr, ptr, ptr, ptr, ptr, ptr, ptr, ptr, ptr, ptr, ptr, ptr, ptr, ptr }

@.str = private unnamed_addr constant [27 x i8] c"org.freedesktop.appearance\00", align 1
@.str.1 = private unnamed_addr constant [13 x i8] c"color-scheme\00", align 1
@system_theme_data = internal global %struct.SystemThemeData zeroinitializer, align 8
@.str.4 = private unnamed_addr constant [32 x i8] c"org.freedesktop.portal.Settings\00", align 1
@.str.7 = private unnamed_addr constant [15 x i8] c"SettingChanged\00", align 1

; Function Attrs: nounwind uwtable
define internal i32 @DBus_MessageFilter(ptr noundef %0, ptr noundef %1, ptr noundef %2) #0 {
  %4 = alloca i32, align 4
  %5 = alloca ptr, align 8
  %6 = alloca ptr, align 8
  %7 = alloca ptr, align 8
  %8 = alloca ptr, align 8
  %9 = alloca %struct.DBusMessageIter, align 8
  %10 = alloca ptr, align 8
  %11 = alloca ptr, align 8
  %12 = alloca i32, align 4
  store ptr %0, ptr %5, align 8
  store ptr %1, ptr %6, align 8
  store ptr %2, ptr %7, align 8
  call void @llvm.lifetime.start.p0(i64 8, ptr %8) #3
  %13 = load ptr, ptr %7, align 8
  store ptr %13, ptr %8, align 8
  %14 = load ptr, ptr %8, align 8
  %15 = getelementptr inbounds nuw %struct.SDL_DBusContext, ptr %14, i32 0, i32 22
  %16 = load ptr, ptr %15, align 8
  %17 = load ptr, ptr %6, align 8
  %18 = call i32 %16(ptr noundef %17, ptr noundef @.str.4, ptr noundef @.str.7)
  %19 = icmp ne i32 %18, 0
  br i1 %19, label %20, label %76

20:                                               ; preds = %3
  call void @llvm.lifetime.start.p0(i64 72, ptr %9) #3
  call void @llvm.lifetime.start.p0(i64 8, ptr %10) #3
  call void @llvm.lifetime.start.p0(i64 8, ptr %11) #3
  %21 = load ptr, ptr %8, align 8
  %22 = getelementptr inbounds nuw %struct.SDL_DBusContext, ptr %21, i32 0, i32 34
  %23 = load ptr, ptr %22, align 8
  %24 = load ptr, ptr %6, align 8
  %25 = call i32 %23(ptr noundef %24, ptr noundef %9)
  %26 = load ptr, ptr %8, align 8
  %27 = getelementptr inbounds nuw %struct.SDL_DBusContext, ptr %26, i32 0, i32 37
  %28 = load ptr, ptr %27, align 8
  %29 = call i32 %28(ptr noundef %9)
  %30 = icmp ne i32 %29, 115
  br i1 %30, label %31, label %32

31:                                               ; preds = %20
  store i32 2, ptr %12, align 4
  br label %74

32:                                               ; preds = %20
  %33 = load ptr, ptr %8, align 8
  %34 = getelementptr inbounds nuw %struct.SDL_DBusContext, ptr %33, i32 0, i32 36
  %35 = load ptr, ptr %34, align 8
  call void %35(ptr noundef %9, ptr noundef %10)
  %36 = load ptr, ptr %10, align 8
  %37 = call i32 @SDL_strcmp_REAL(ptr noundef @.str, ptr noundef %36)
  %38 = icmp ne i32 %37, 0
  br i1 %38, label %39, label %40

39:                                               ; preds = %32
  store i32 2, ptr %12, align 4
  br label %74

40:                                               ; preds = %32
  %41 = load ptr, ptr %8, align 8
  %42 = getelementptr inbounds nuw %struct.SDL_DBusContext, ptr %41, i32 0, i32 35
  %43 = load ptr, ptr %42, align 8
  %44 = call i32 %43(ptr noundef %9)
  %45 = icmp ne i32 %44, 0
  br i1 %45, label %47, label %46

46:                                               ; preds = %40
  store i32 2, ptr %12, align 4
  br label %74

47:                                               ; preds = %40
  %48 = load ptr, ptr %8, align 8
  %49 = getelementptr inbounds nuw %struct.SDL_DBusContext, ptr %48, i32 0, i32 37
  %50 = load ptr, ptr %49, align 8
  %51 = call i32 %50(ptr noundef %9)
  %52 = icmp ne i32 %51, 115
  br i1 %52, label %53, label %54

53:                                               ; preds = %47
  store i32 2, ptr %12, align 4
  br label %74

54:                                               ; preds = %47
  %55 = load ptr, ptr %8, align 8
  %56 = getelementptr inbounds nuw %struct.SDL_DBusContext, ptr %55, i32 0, i32 36
  %57 = load ptr, ptr %56, align 8
  call void %57(ptr noundef %9, ptr noundef %11)
  %58 = load ptr, ptr %11, align 8
  %59 = call i32 @SDL_strcmp_REAL(ptr noundef @.str.1, ptr noundef %58)
  %60 = icmp ne i32 %59, 0
  br i1 %60, label %61, label %62

61:                                               ; preds = %54
  store i32 2, ptr %12, align 4
  br label %74

62:                                               ; preds = %54
  %63 = load ptr, ptr %8, align 8
  %64 = getelementptr inbounds nuw %struct.SDL_DBusContext, ptr %63, i32 0, i32 35
  %65 = load ptr, ptr %64, align 8
  %66 = call i32 %65(ptr noundef %9)
  %67 = icmp ne i32 %66, 0
  br i1 %67, label %69, label %68

68:                                               ; preds = %62
  store i32 2, ptr %12, align 4
  br label %74

69:                                               ; preds = %62
  %70 = call zeroext i1 @DBus_ExtractThemeVariant(ptr noundef %9, ptr noundef getelementptr inbounds nuw (%struct.SystemThemeData, ptr @system_theme_data, i32 0, i32 1))
  br i1 %70, label %72, label %71

71:                                               ; preds = %69
  store i32 2, ptr %12, align 4
  br label %74

72:                                               ; preds = %69
  %73 = load i32, ptr getelementptr inbounds nuw (%struct.SystemThemeData, ptr @system_theme_data, i32 0, i32 1), align 8
  call void @SDL_SetSystemTheme(i32 noundef %73)
  store i32 0, ptr %4, align 4
  store i32 1, ptr %12, align 4
  br label %74

74:                                               ; preds = %71, %68, %61, %53, %46, %39, %31, %72
  call void @llvm.lifetime.end.p0(i64 8, ptr %11) #3
  call void @llvm.lifetime.end.p0(i64 8, ptr %10) #3
  call void @llvm.lifetime.end.p0(i64 72, ptr %9) #3
  %75 = load i32, ptr %12, align 4
  switch i32 %75, label %78 [
    i32 2, label %77
  ]

76:                                               ; preds = %3
  br label %77

77:                                               ; preds = %76, %74
  store i32 1, ptr %4, align 4
  store i32 1, ptr %12, align 4
  br label %78

78:                                               ; preds = %77, %74
  call void @llvm.lifetime.end.p0(i64 8, ptr %8) #3
  %79 = load i32, ptr %4, align 4
  ret i32 %79
}