; Function Attrs: nounwind uwtable
define internal range(i32 0, 2) i32 @DBus_MessageFilter(ptr readnone captures(none) %0, ptr noundef %1, ptr noundef readonly captures(none) %2) #0 {
  %4 = alloca %struct.DBusMessageIter, align 8
  %5 = alloca ptr, align 8
  %6 = alloca ptr, align 8
  %7 = getelementptr inbounds nuw i8, ptr %2, i64 176
  %8 = load ptr, ptr %7, align 8
  %9 = tail call i32 %8(ptr noundef %1, ptr noundef nonnull @.str.4, ptr noundef nonnull @.str.7) #4
  %.not = icmp eq i32 %9, 0
  br i1 %.not, label %39, label %10

10:                                               ; preds = %3
  call void @llvm.lifetime.start.p0(i64 72, ptr nonnull %4) #4
  call void @llvm.lifetime.start.p0(i64 8, ptr nonnull %5) #4
  call void @llvm.lifetime.start.p0(i64 8, ptr nonnull %6) #4
  %11 = getelementptr inbounds nuw i8, ptr %2, i64 272
  %12 = load ptr, ptr %11, align 8
  %13 = call i32 %12(ptr noundef %1, ptr noundef nonnull %4) #4
  %14 = getelementptr inbounds nuw i8, ptr %2, i64 296
  %15 = load ptr, ptr %14, align 8
  %16 = call i32 %15(ptr noundef nonnull %4) #4
  %.not13 = icmp eq i32 %16, 115
  br i1 %.not13, label %17, label %.sink.split

17:                                               ; preds = %10
  %18 = getelementptr inbounds nuw i8, ptr %2, i64 288
  %19 = load ptr, ptr %18, align 8
  call void %19(ptr noundef nonnull %4, ptr noundef nonnull %5) #4
  %20 = load ptr, ptr %5, align 8
  %21 = call i32 @SDL_strcmp_REAL(ptr noundef nonnull @.str, ptr noundef %20) #4
  %.not14 = icmp eq i32 %21, 0
  br i1 %.not14, label %22, label %.sink.split

22:                                               ; preds = %17
  %23 = getelementptr inbounds nuw i8, ptr %2, i64 280
  %24 = load ptr, ptr %23, align 8
  %25 = call i32 %24(ptr noundef nonnull %4) #4
  %.not15 = icmp eq i32 %25, 0
  br i1 %.not15, label %.sink.split, label %26

26:                                               ; preds = %22
  %27 = load ptr, ptr %14, align 8
  %28 = call i32 %27(ptr noundef nonnull %4) #4
  %.not16 = icmp eq i32 %28, 115
  br i1 %.not16, label %29, label %.sink.split

29:                                               ; preds = %26
  %30 = load ptr, ptr %18, align 8
  call void %30(ptr noundef nonnull %4, ptr noundef nonnull %6) #4
  %31 = load ptr, ptr %6, align 8
  %32 = call i32 @SDL_strcmp_REAL(ptr noundef nonnull @.str.1, ptr noundef %31) #4
  %.not17 = icmp eq i32 %32, 0
  br i1 %.not17, label %33, label %.sink.split

33:                                               ; preds = %29
  %34 = load ptr, ptr %23, align 8
  %35 = call i32 %34(ptr noundef nonnull %4) #4
  %.not18 = icmp eq i32 %35, 0
  br i1 %.not18, label %.sink.split, label %36

36:                                               ; preds = %33
  %37 = call fastcc zeroext i1 @DBus_ExtractThemeVariant(ptr noundef %4)
  br i1 %37, label %.critedge, label %.sink.split

.critedge:                                        ; preds = %36
  %38 = load i32, ptr @system_theme_data.1, align 8
  call void @SDL_SetSystemTheme(i32 noundef %38) #4
  br label %.sink.split

.sink.split:                                      ; preds = %10, %17, %22, %26, %29, %33, %36, %.critedge
  %.1.ph = phi i32 [ 0, %.critedge ], [ 1, %36 ], [ 1, %33 ], [ 1, %29 ], [ 1, %26 ], [ 1, %22 ], [ 1, %17 ], [ 1, %10 ]
  call void @llvm.lifetime.end.p0(i64 8, ptr nonnull %6) #4
  call void @llvm.lifetime.end.p0(i64 8, ptr nonnull %5) #4
  call void @llvm.lifetime.end.p0(i64 72, ptr nonnull %4) #4
  br label %39

39:                                               ; preds = %.sink.split, %3
  %.1 = phi i32 [ 1, %3 ], [ %.1.ph, %.sink.split ]
  ret i32 %.1
}